target datalayout = "e-m:e-p270:32:32-p271:32:32-p272:64:64-i64:64-i128:128-f80:128-n8:16:32:64-S128"
target triple = "x86_64-pc-linux-gnu"

%struct.reftable_iterator_vtable = type { ptr, ptr, ptr }
%struct.reftable_iterator = type { ptr, ptr }
%struct.reftable_buf = type { i64, i64, ptr }
%struct.reftable_record = type { i8, %union.anon }
%union.anon = type { %struct.reftable_log_record }
%struct.reftable_log_record = type { ptr, i64, i64, i32, %union.anon.1 }
%union.anon.1 = type { %struct.anon.2 }
%struct.anon.2 = type { [32 x i8], [32 x i8], ptr, ptr, i64, i16, ptr, i64 }
%struct.reftable_ref_record = type { ptr, i64, i64, i32, %union.anon.0 }
%union.anon.0 = type { ptr, [56 x i8] }
%struct.filtering_ref_iterator = type { %struct.reftable_buf, %struct.reftable_iterator }
%struct.anon = type { [32 x i8], [32 x i8] }

; Function Attrs: nounwind uwtable
define dso_local i32 @iterator_next(ptr noundef %0, ptr noundef %1) #0 {
  %3 = alloca ptr, align 8
  %4 = alloca ptr, align 8
  store ptr %0, ptr %3, align 8, !tbaa !4
  store ptr %1, ptr %4, align 8, !tbaa !9
  %5 = load ptr, ptr %3, align 8, !tbaa !4
  %6 = getelementptr inbounds nuw %struct.reftable_iterator, ptr %5, i32 0, i32 0
  %7 = load ptr, ptr %6, align 8, !tbaa !11
  %8 = getelementptr inbounds nuw %struct.reftable_iterator_vtable, ptr %7, i32 0, i32 1
  %9 = load ptr, ptr %8, align 8, !tbaa !17
  %10 = load ptr, ptr %3, align 8, !tbaa !4
  %11 = getelementptr inbounds nuw %struct.reftable_iterator, ptr %10, i32 0, i32 1
  %12 = load ptr, ptr %11, align 8, !tbaa !16
  %13 = load ptr, ptr %4, align 8, !tbaa !9
  %14 = call i32 %9(ptr noundef %12, ptr noundef %13)
  ret i32 %14
}

; Function Attrs: nounwind uwtable
define dso_local i32 @reftable_iterator_next_ref(ptr noundef %0, ptr noundef %1) #0 {
  %3 = alloca ptr, align 8
  %4 = alloca ptr, align 8
  %5 = alloca %struct.reftable_record, align 8
  %6 = alloca i32, align 4
  store ptr %0, ptr %3, align 8, !tbaa !4
  store ptr %1, ptr %4, align 8, !tbaa !58
  call void @llvm.lifetime.start.p0(i64 152, ptr %5) #7
  %7 = getelementptr inbounds nuw %struct.reftable_record, ptr %5, i32 0, i32 0
  store i8 114, ptr %7, align 8, !tbaa !54
  %8 = getelementptr i8, ptr %5, i64 1
  call void @llvm.memset.p0.i64(ptr align 1 %8, i8 0, i64 7, i1 false)
  %9 = getelementptr inbounds nuw %struct.reftable_record, ptr %5, i32 0, i32 1
  %10 = load ptr, ptr %4, align 8, !tbaa !58
  call void @llvm.memcpy.p0.p0.i64(ptr align 8 %9, ptr align 8 %10, i64 96, i1 false), !tbaa.struct !60
  %11 = getelementptr i8, ptr %9, i64 96
  call void @llvm.memset.p0.i64(ptr align 8 %11, i8 0, i64 48, i1 false)
  call void @llvm.lifetime.start.p0(i64 4, ptr %6) #7
  %12 = load ptr, ptr %3, align 8, !tbaa !4
  %13 = call i32 @iterator_next(ptr noundef %12, ptr noundef %5)
  store i32 %13, ptr %6, align 4, !tbaa !26
  %14 = load ptr, ptr %4, align 8, !tbaa !58
  %15 = getelementptr inbounds nuw %struct.reftable_record, ptr %5, i32 0, i32 1
  call void @llvm.memcpy.p0.p0.i64(ptr align 8 %14, ptr align 8 %15, i64 96, i1 false), !tbaa.struct !60
  %16 = load i32, ptr %6, align 4, !tbaa !26
  call void @llvm.lifetime.end.p0(i64 4, ptr %6) #7
  call void @llvm.lifetime.end.p0(i64 152, ptr %5) #7
  ret i32 %16
}

; Function Attrs: nounwind uwtable
define internal i32 @filtering_ref_iterator_next(ptr noundef %0, ptr noundef %1) #0 {
  %3 = alloca i32, align 4
  %4 = alloca ptr, align 8
  %5 = alloca ptr, align 8
  %6 = alloca ptr, align 8
  %7 = alloca ptr, align 8
  %8 = alloca i32, align 4
  %9 = alloca i32, align 4
  store ptr %0, ptr %4, align 8, !tbaa !37
  store ptr %1, ptr %5, align 8, !tbaa !9
  call void @llvm.lifetime.start.p0(i64 8, ptr %6) #7
  %10 = load ptr, ptr %4, align 8, !tbaa !37
  store ptr %10, ptr %6, align 8, !tbaa !18
  call void @llvm.lifetime.start.p0(i64 8, ptr %7) #7
  %11 = load ptr, ptr %5, align 8, !tbaa !9
  %12 = getelementptr inbounds nuw %struct.reftable_record, ptr %11, i32 0, i32 1
  store ptr %12, ptr %7, align 8, !tbaa !58
  call void @llvm.lifetime.start.p0(i64 4, ptr %8) #7
  store i32 0, ptr %8, align 4, !tbaa !26
  br label %13

13:                                               ; preds = %78, %2
  br label %14

14:                                               ; preds = %13
  %15 = load ptr, ptr %6, align 8, !tbaa !18
  %16 = getelementptr inbounds nuw %struct.filtering_ref_iterator, ptr %15, i32 0, i32 1
  %17 = load ptr, ptr %7, align 8, !tbaa !58
  %18 = call i32 @reftable_iterator_next_ref(ptr noundef %16, ptr noundef %17)
  store i32 %18, ptr %8, align 4, !tbaa !26
  %19 = load i32, ptr %8, align 4, !tbaa !26
  %20 = icmp ne i32 %19, 0
  br i1 %20, label %21, label %22

21:                                               ; preds = %14
  br label %79

22:                                               ; preds = %14
  %23 = load ptr, ptr %7, align 8, !tbaa !58
  %24 = getelementptr inbounds nuw %struct.reftable_ref_record, ptr %23, i32 0, i32 3
  %25 = load i32, ptr %24, align 8, !tbaa !68
  %26 = icmp eq i32 %25, 2
  br i1 %26, label %27, label %58

27:                                               ; preds = %22
  %28 = load ptr, ptr %6, align 8, !tbaa !18
  %29 = getelementptr inbounds nuw %struct.filtering_ref_iterator, ptr %28, i32 0, i32 0
  %30 = getelementptr inbounds nuw %struct.reftable_buf, ptr %29, i32 0, i32 2
  %31 = load ptr, ptr %30, align 8, !tbaa !69
  %32 = load ptr, ptr %7, align 8, !tbaa !58
  %33 = getelementptr inbounds nuw %struct.reftable_ref_record, ptr %32, i32 0, i32 4
  %34 = getelementptr inbounds nuw %struct.anon, ptr %33, i32 0, i32 1
  %35 = getelementptr inbounds [32 x i8], ptr %34, i64 0, i64 0
  %36 = load ptr, ptr %6, align 8, !tbaa !18
  %37 = getelementptr inbounds nuw %struct.filtering_ref_iterator, ptr %36, i32 0, i32 0
  %38 = getelementptr inbounds nuw %struct.reftable_buf, ptr %37, i32 0, i32 1
  %39 = load i64, ptr %38, align 8, !tbaa !71
  %40 = call i32 @memcmp(ptr noundef %31, ptr noundef %35, i64 noundef %39) #8
  %41 = icmp ne i32 %40, 0
  br i1 %41, label %42, label %57

42:                                               ; preds = %27
  %43 = load ptr, ptr %6, align 8, !tbaa !18
  %44 = getelementptr inbounds nuw %struct.filtering_ref_iterator, ptr %43, i32 0, i32 0
  %45 = getelementptr inbounds nuw %struct.reftable_buf, ptr %44, i32 0, i32 2
  %46 = load ptr, ptr %45, align 8, !tbaa !69
  %47 = load ptr, ptr %7, align 8, !tbaa !58
  %48 = getelementptr inbounds nuw %struct.reftable_ref_record, ptr %47, i32 0, i32 4
  %49 = getelementptr inbounds nuw %struct.anon, ptr %48, i32 0, i32 0
  %50 = getelementptr inbounds [32 x i8], ptr %49, i64 0, i64 0
  %51 = load ptr, ptr %6, align 8, !tbaa !18
  %52 = getelementptr inbounds nuw %struct.filtering_ref_iterator, ptr %51, i32 0, i32 0
  %53 = getelementptr inbounds nuw %struct.reftable_buf, ptr %52, i32 0, i32 1
  %54 = load i64, ptr %53, align 8, !tbaa !71
  %55 = call i32 @memcmp(ptr noundef %46, ptr noundef %50, i64 noundef %54) #8
  %56 = icmp ne i32 %55, 0
  br i1 %56, label %58, label %57

57:                                               ; preds = %42, %27
  store i32 0, ptr %3, align 4
  store i32 1, ptr %9, align 4
  br label %82

58:                                               ; preds = %42, %22
  %59 = load ptr, ptr %7, align 8, !tbaa !58
  %60 = getelementptr inbounds nuw %struct.reftable_ref_record, ptr %59, i32 0, i32 3
  %61 = load i32, ptr %60, align 8, !tbaa !68
  %62 = icmp eq i32 %61, 1
  br i1 %62, label %63, label %78

63:                                               ; preds = %58
  %64 = load ptr, ptr %6, align 8, !tbaa !18
  %65 = getelementptr inbounds nuw %struct.filtering_ref_iterator, ptr %64, i32 0, i32 0
  %66 = getelementptr inbounds nuw %struct.reftable_buf, ptr %65, i32 0, i32 2
  %67 = load ptr, ptr %66, align 8, !tbaa !69
  %68 = load ptr, ptr %7, align 8, !tbaa !58
  %69 = getelementptr inbounds nuw %struct.reftable_ref_record, ptr %68, i32 0, i32 4
  %70 = getelementptr inbounds [32 x i8], ptr %69, i64 0, i64 0
  %71 = load ptr, ptr %6, align 8, !tbaa !18
  %72 = getelementptr inbounds nuw %struct.filtering_ref_iterator, ptr %71, i32 0, i32 0
  %73 = getelementptr inbounds nuw %struct.reftable_buf, ptr %72, i32 0, i32 1
  %74 = load i64, ptr %73, align 8, !tbaa !71
  %75 = call i32 @memcmp(ptr noundef %67, ptr noundef %70, i64 noundef %74) #8
  %76 = icmp ne i32 %75, 0
  br i1 %76, label %78, label %77

77:                                               ; preds = %63
  store i32 0, ptr %3, align 4
  store i32 1, ptr %9, align 4
  br label %82

78:                                               ; preds = %63, %58
  br label %13

79:                                               ; preds = %21
  %80 = load ptr, ptr %7, align 8, !tbaa !58
  call void @reftable_ref_record_release(ptr noundef %80)
  %81 = load i32, ptr %8, align 4, !tbaa !26
  store i32 %81, ptr %3, align 4
  store i32 1, ptr %9, align 4
  br label %82

82:                                               ; preds = %79, %77, %57
  call void @llvm.lifetime.end.p0(i64 4, ptr %8) #7
  call void @llvm.lifetime.end.p0(i64 8, ptr %7) #7
  call void @llvm.lifetime.end.p0(i64 8, ptr %6) #7
  %83 = load i32, ptr %3, align 4
  ret i32 %83
}