; Function Attrs: nounwind uwtable
define internal i32 @filtering_ref_iterator_next(ptr noundef readonly captures(none) %0, ptr noundef %1) #0 {
  %3 = alloca %struct.reftable_record, align 8
  %4 = getelementptr inbounds nuw i8, ptr %1, i64 8
  %5 = getelementptr inbounds nuw i8, ptr %0, i64 24
  %6 = getelementptr inbounds nuw i8, ptr %3, i64 1
  %7 = getelementptr inbounds nuw i8, ptr %3, i64 8
  %8 = getelementptr inbounds nuw i8, ptr %3, i64 104
  %9 = getelementptr inbounds nuw i8, ptr %0, i64 32
  %10 = getelementptr inbounds nuw i8, ptr %1, i64 32
  %11 = getelementptr inbounds nuw i8, ptr %0, i64 16
  %12 = getelementptr inbounds nuw i8, ptr %1, i64 40
  %13 = getelementptr inbounds nuw i8, ptr %0, i64 8
  %14 = getelementptr inbounds nuw i8, ptr %1, i64 72
  br label %.thread

.thread:                                          ; preds = %.thread.backedge, %2
  call void @llvm.lifetime.start.p0(i64 152, ptr nonnull %3) #10
  store i8 114, ptr %3, align 8, !tbaa !37
  call void @llvm.memset.p0.i64(ptr noundef nonnull align 1 dereferenceable(7) %6, i8 0, i64 7, i1 false)
  call void @llvm.memcpy.p0.p0.i64(ptr noundef nonnull align 8 dereferenceable(96) %7, ptr noundef nonnull align 8 dereferenceable(96) %4, i64 96, i1 false), !tbaa.struct !41
  call void @llvm.memset.p0.i64(ptr noundef nonnull align 8 dereferenceable(48) %8, i8 0, i64 48, i1 false)
  %15 = load ptr, ptr %5, align 8, !tbaa !4
  %16 = getelementptr inbounds nuw i8, ptr %15, i64 8
  %17 = load ptr, ptr %16, align 8, !tbaa !13
  %18 = load ptr, ptr %9, align 8, !tbaa !12
  %19 = call i32 %17(ptr noundef %18, ptr noundef nonnull %3) #10
  call void @llvm.memcpy.p0.p0.i64(ptr noundef nonnull align 8 dereferenceable(96) %4, ptr noundef nonnull align 8 dereferenceable(96) %7, i64 96, i1 false), !tbaa.struct !41
  call void @llvm.lifetime.end.p0(i64 152, ptr nonnull %3) #10
  %.not = icmp eq i32 %19, 0
  br i1 %.not, label %20, label %29

20:                                               ; preds = %.thread
  %21 = load i32, ptr %10, align 8, !tbaa !49
  switch i32 %21, label %.thread.backedge [
    i32 2, label %22
    i32 1, label %26
  ]

.thread.backedge:                                 ; preds = %20, %25, %26
  br label %.thread

22:                                               ; preds = %20
  %23 = load ptr, ptr %11, align 8, !tbaa !50
  %24 = load i64, ptr %13, align 8, !tbaa !52
  %bcmp = call i32 @bcmp(ptr %23, ptr nonnull %14, i64 %24)
  %.not19 = icmp eq i32 %bcmp, 0
  br i1 %.not19, label %.loopexit, label %25

25:                                               ; preds = %22
  %bcmp20 = call i32 @bcmp(ptr %23, ptr nonnull %12, i64 %24)
  %.not21 = icmp eq i32 %bcmp20, 0
  br i1 %.not21, label %.loopexit, label %.thread.backedge

26:                                               ; preds = %20
  %27 = load ptr, ptr %11, align 8, !tbaa !50
  %28 = load i64, ptr %13, align 8, !tbaa !52
  %bcmp22 = call i32 @bcmp(ptr %27, ptr nonnull %12, i64 %28)
  %.not23 = icmp eq i32 %bcmp22, 0
  br i1 %.not23, label %.loopexit, label %.thread.backedge

29:                                               ; preds = %.thread
  call void @reftable_ref_record_release(ptr noundef nonnull %4) #10
  br label %.loopexit

.loopexit:                                        ; preds = %26, %22, %25, %29
  ret i32 %19
}